target datalayout = "e-m:e-p270:32:32-p271:32:32-p272:64:64-i64:64-i128:128-f80:128-n8:16:32:64-S128"
target triple = "x86_64-pc-linux-gnu"

%"class.icu_77::BytesTrie" = type <{ ptr, ptr, ptr, i32, [4 x i8] }>

; Function Attrs: inlinehint mustprogress nounwind uwtable
define linkonce_odr noundef i32 @_ZN6icu_779BytesTrie11valueResultEi(i32 noundef %0) #5 comdat align 2 {
  %2 = alloca i32, align 4
  store i32 %0, ptr %2, align 4, !tbaa !13
  %3 = load i32, ptr %2, align 4, !tbaa !13
  %4 = and i32 %3, 1
  %5 = sub nsw i32 3, %4
  ret i32 %5
}

; Function Attrs: mustprogress uwtable
define noundef i32 @_ZNK6icu_779BytesTrie7currentEv(ptr noundef nonnull align 8 dereferenceable(28) %0) #4 align 2 {
  %2 = alloca i32, align 4
  %3 = alloca ptr, align 8
  %4 = alloca ptr, align 8
  %5 = alloca i32, align 4
  %6 = alloca i32, align 4
  store ptr %0, ptr %3, align 8, !tbaa !3
  %7 = load ptr, ptr %3, align 8
  call void @llvm.lifetime.start.p0(i64 8, ptr %4) #8
  %8 = getelementptr inbounds nuw %"class.icu_77::BytesTrie", ptr %7, i32 0, i32 2
  %9 = load ptr, ptr %8, align 8, !tbaa !15
  store ptr %9, ptr %4, align 8, !tbaa !12
  %10 = load ptr, ptr %4, align 8, !tbaa !12
  %11 = icmp eq ptr %10, null
  br i1 %11, label %12, label %13

12:                                               ; preds = %1
  store i32 0, ptr %2, align 4
  store i32 1, ptr %5, align 4
  br label %28

13:                                               ; preds = %1
  call void @llvm.lifetime.start.p0(i64 4, ptr %6) #8
  %14 = getelementptr inbounds nuw %"class.icu_77::BytesTrie", ptr %7, i32 0, i32 3
  %15 = load i32, ptr %14, align 8, !tbaa !16
  %16 = icmp slt i32 %15, 0
  br i1 %16, label %17, label %25

17:                                               ; preds = %13
  %18 = load ptr, ptr %4, align 8, !tbaa !12
  %19 = load i8, ptr %18, align 1, !tbaa !14
  %20 = zext i8 %19 to i32
  store i32 %20, ptr %6, align 4, !tbaa !13
  %21 = icmp sge i32 %20, 32
  br i1 %21, label %22, label %25

22:                                               ; preds = %17
  %23 = load i32, ptr %6, align 4, !tbaa !13
  %24 = call noundef i32 @_ZN6icu_779BytesTrie11valueResultEi(i32 noundef %23)
  br label %26

25:                                               ; preds = %17, %13
  br label %26

26:                                               ; preds = %25, %22
  %27 = phi i32 [ %24, %22 ], [ 1, %25 ]
  store i32 %27, ptr %2, align 4
  store i32 1, ptr %5, align 4
  call void @llvm.lifetime.end.p0(i64 4, ptr %6) #8
  br label %28

28:                                               ; preds = %26, %12
  call void @llvm.lifetime.end.p0(i64 8, ptr %4) #8
  %29 = load i32, ptr %2, align 4
  ret i32 %29
}