; Function Attrs: mustprogress nofree norecurse nosync nounwind willreturn memory(read, inaccessiblemem: none) uwtable
define noundef range(i32 0, 4) i32 @_ZNK6icu_779BytesTrie7currentEv(ptr noundef nonnull readonly align 8 captures(none) dereferenceable(28) %0) local_unnamed_addr #6 align 2 {
  %2 = getelementptr inbounds nuw i8, ptr %0, i64 16
  %3 = load ptr, ptr %2, align 8, !tbaa !11
  %4 = icmp eq ptr %3, null
  br i1 %4, label %16, label %5

5:                                                ; preds = %1
  %6 = getelementptr inbounds nuw i8, ptr %0, i64 24
  %7 = load i32, ptr %6, align 8, !tbaa !12
  %8 = icmp slt i32 %7, 0
  br i1 %8, label %9, label %16

9:                                                ; preds = %5
  %10 = load i8, ptr %3, align 1, !tbaa !10
  %11 = icmp ugt i8 %10, 31
  br i1 %11, label %12, label %16

12:                                               ; preds = %9
  %13 = and i8 %10, 1
  %14 = xor i8 %13, 3
  %15 = zext nneg i8 %14 to i32
  br label %16

16:                                               ; preds = %12, %9, %5, %1
  %.0 = phi i32 [ 0, %1 ], [ %15, %12 ], [ 1, %9 ], [ 1, %5 ]
  ret i32 %.0
}